target datalayout = "e-m:e-p270:32:32-p271:32:32-p272:64:64-i64:64-i128:128-f80:128-n8:16:32:64-S128"
target triple = "x86_64-pc-linux-gnu"

%"class.triggers::trigger_t" = type <{ ptr, i64, i8, i8, i8, i8, i8, [3 x i8], i32, i32, i32, i32, i32, [4 x i8] }>
%"class.triggers::trigger_t.base" = type <{ ptr, i64, i8, i8, i8, i8, i8, [3 x i8], i32, i32, i32, i32, i32 }>
%"class.triggers::itrigger_t" = type <{ %"class.triggers::trap_common_t.base", i8, [3 x i8] }>
%"class.triggers::trap_common_t.base" = type { %"class.triggers::trigger_t.base", i8, i8, i32 }

; Function Attrs: mustprogress nounwind uwtable
define noundef zeroext i1 @_ZNK8triggers10itrigger_t12simple_matchEbm(ptr noundef nonnull align 8 dereferenceable(53) %0, i1 noundef zeroext %1, i64 noundef %2) unnamed_addr #4 align 2 {
  %4 = alloca ptr, align 8
  %5 = alloca i8, align 1
  %6 = alloca i64, align 8
  store ptr %0, ptr %4, align 8, !tbaa !244
  %7 = zext i1 %1 to i8
  store i8 %7, ptr %5, align 1, !tbaa !17
  store i64 %2, ptr %6, align 8, !tbaa !16
  %8 = load ptr, ptr %4, align 8
  %9 = load i8, ptr %5, align 1, !tbaa !17, !range !18, !noundef !19
  %10 = trunc i8 %9 to i1
  br i1 %10, label %11, label %27

11:                                               ; preds = %3
  %12 = load i64, ptr %6, align 8, !tbaa !16
  %13 = icmp eq i64 %12, 0
  br i1 %13, label %14, label %18

14:                                               ; preds = %11
  %15 = getelementptr inbounds nuw %"class.triggers::itrigger_t", ptr %8, i32 0, i32 1
  %16 = load i8, ptr %15, align 4, !tbaa !249, !range !18, !noundef !19
  %17 = trunc i8 %16 to i1
  br i1 %17, label %25, label %18

18:                                               ; preds = %14, %11
  %19 = getelementptr inbounds nuw %"class.triggers::trigger_t", ptr %8, i32 0, i32 1
  %20 = load i64, ptr %19, align 8, !tbaa !10
  %21 = load i64, ptr %6, align 8, !tbaa !16
  %22 = lshr i64 %20, %21
  %23 = and i64 %22, 1
  %24 = icmp ne i64 %23, 0
  br label %25

25:                                               ; preds = %18, %14
  %26 = phi i1 [ true, %14 ], [ %24, %18 ]
  br label %27

27:                                               ; preds = %25, %3
  %28 = phi i1 [ false, %3 ], [ %26, %25 ]
  ret i1 %28
}