; Function Attrs: mustprogress nofree norecurse nosync nounwind willreturn memory(argmem: read) uwtable
define noundef zeroext i1 @_ZNK8triggers10itrigger_t12simple_matchEbm(ptr noundef nonnull readonly align 8 captures(none) dereferenceable(53) %0, i1 noundef zeroext %1, i64 noundef %2) unnamed_addr #3 align 2 {
  br i1 %1, label %4, label %16

4:                                                ; preds = %3
  %5 = icmp eq i64 %2, 0
  br i1 %5, label %6, label %10

6:                                                ; preds = %4
  %7 = getelementptr inbounds nuw i8, ptr %0, i64 52
  %8 = load i8, ptr %7, align 4, !tbaa !199, !range !14, !noundef !15
  %9 = trunc nuw i8 %8 to i1
  br i1 %9, label %16, label %10

10:                                               ; preds = %6, %4
  %11 = getelementptr inbounds nuw i8, ptr %0, i64 8
  %12 = load i64, ptr %11, align 8, !tbaa !3
  %13 = shl nuw i64 1, %2
  %14 = and i64 %12, %13
  %15 = icmp ne i64 %14, 0
  br label %16

16:                                               ; preds = %6, %10, %3
  %17 = phi i1 [ false, %3 ], [ true, %6 ], [ %15, %10 ]
  ret i1 %17
}